; Function Attrs: nofree norecurse nosync nounwind memory(readwrite, inaccessiblemem: none) uwtable
define hidden void @IntArgbToUshort565RgbScaleConvert(ptr noundef %0, ptr noundef %1, i32 noundef %2, i32 noundef %3, i32 noundef %4, i32 noundef %5, i32 noundef %6, i32 noundef %7, i32 noundef %8, ptr nocapture noundef readonly %9, ptr nocapture noundef readonly %10, ptr nocapture readnone %11, ptr nocapture readnone %12) #1 {
  %14 = getelementptr inbounds i8, ptr %9, i64 32
  %15 = load i32, ptr %14, align 8
  %16 = getelementptr inbounds i8, ptr %10, i64 32
  %17 = load i32, ptr %16, align 8
  %18 = shl i32 %2, 1
  %19 = sub i32 %17, %18
  %20 = sext i32 %19 to i64
  %21 = ptrtoint ptr %0 to i64
  %22 = sext i32 %15 to i64
  br label %23

23:                                               ; preds = %48, %13
  %.030 = phi ptr [ %1, %13 ], [ %50, %48 ]
  %.027 = phi i32 [ %5, %13 ], [ %51, %48 ]
  %.0 = phi i32 [ %3, %13 ], [ %52, %48 ]
  %24 = ashr i32 %.027, %8
  %25 = sext i32 %24 to i64
  %26 = mul nsw i64 %25, %22
  %27 = add nsw i64 %26, %21
  %28 = inttoptr i64 %27 to ptr
  br label %29

29:                                               ; preds = %29, %23
  %.1 = phi ptr [ %.030, %23 ], [ %45, %29 ]
  %.029 = phi i32 [ %2, %23 ], [ %47, %29 ]
  %.028 = phi i32 [ %4, %23 ], [ %46, %29 ]
  %30 = ashr i32 %.028, %8
  %31 = sext i32 %30 to i64
  %32 = getelementptr inbounds i32, ptr %28, i64 %31
  %33 = load i32, ptr %32, align 4
  %34 = lshr i32 %33, 8
  %35 = and i32 %34, 63488
  %36 = lshr i32 %33, 5
  %37 = and i32 %36, 2016
  %38 = or disjoint i32 %35, %37
  %39 = lshr i32 %33, 3
  %40 = and i32 %39, 31
  %41 = or disjoint i32 %38, %40
  %42 = trunc nuw i32 %41 to i16
  store i16 %42, ptr %.1, align 2
  %43 = ptrtoint ptr %.1 to i64
  %44 = add nsw i64 %43, 2
  %45 = inttoptr i64 %44 to ptr
  %46 = add nsw i32 %.028, %6
  %47 = add i32 %.029, -1
  %.not = icmp eq i32 %47, 0
  br i1 %.not, label %48, label %29, !llvm.loop !20

48:                                               ; preds = %29
  %49 = add nsw i64 %44, %20
  %50 = inttoptr i64 %49 to ptr
  %51 = add nsw i32 %.027, %7
  %52 = add i32 %.0, -1
  %.not32 = icmp eq i32 %52, 0
  br i1 %.not32, label %53, label %23, !llvm.loop !21

53:                                               ; preds = %48
  ret void
}